Certificate:
    Data:
        Version: 3 (0x2)
        Serial Number: 2 (0x2)
        Signature Algorithm: sha1WithRSAEncryption
        Issuer: DC=org, DC=simple, O=Simple Inc, OU=Simple Root CA, CN=Simple Root CA
        Validity
            Not Before: Dec 10 18:36:43 2017 GMT
            Not After : Dec 10 18:36:43 2027 GMT
        Subject: DC=org, DC=simple, O=Simple Inc, OU=Simple Signing CA, CN=Simple Signing CA
        Subject Public Key Info:
            Public Key Algorithm: rsaEncryption
            RSA Public Key: (2048 bit)
                Modulus (2048 bit):
                    00:d2:51:05:f2:d2:5b:a8:7e:64:d8:80:5b:00:7c:
                    5a:97:f3:ce:2a:83:a0:f3:58:e1:64:f4:74:ba:c2:
                    68:74:ff:ba:81:80:b6:35:94:83:8e:29:0f:b5:c8:
                    ad:44:66:5f:36:46:d2:93:b2:c8:3f:69:e3:56:df:
                    63:43:a8:b0:e1:b2:fb:0d:90:9e:39:b4:36:d1:ea:
                    c1:4a:64:e1:9b:1f:ea:01:e7:a7:d4:b3:30:97:17:
                    52:0b:b9:8c:88:d2:38:2d:e7:dd:50:89:4b:32:5c:
                    8b:73:2e:0f:08:0a:94:83:47:55:42:79:f4:fc:38:
                    99:a8:48:38:51:f0:be:02:f1:fd:1b:35:c3:75:69:
                    dd:64:87:a0:a9:ba:14:ff:aa:32:d4:68:da:4e:b1:
                    4c:13:cc:b1:69:b5:d3:48:a0:51:5e:ef:27:44:c6:
                    5a:39:2c:f7:b2:fa:6e:6b:71:67:7a:3e:8b:f8:92:
                    5c:5c:71:c1:3d:62:51:14:ee:1e:66:60:02:53:0d:
                    74:1a:4b:a6:cf:1e:61:c1:ca:88:97:27:12:96:c2:
                    a0:66:d4:cc:93:0e:32:6b:f2:5a:8a:54:43:c3:60:
                    82:a3:31:85:d7:a8:c7:8a:35:2c:9d:1e:e5:ca:94:
                    58:35:aa:77:ac:71:89:71:2c:24:1c:16:b5:50:e9:
                    47:17
                Exponent: 65537 (0x10001)
        X509v3 extensions:
            X509v3 Key Usage: critical
                Certificate Sign, CRL Sign
            X509v3 Basic Constraints: critical
                CA:TRUE, pathlen:0
            X509v3 Subject Key Identifier: 
                10:B8:D2:1F:CA:2B:1F:E9:30:3A:4D:16:57:A0:1D:A2:0C:2B:EE:30
            X509v3 Authority Key Identifier: 
                keyid:19:59:62:51:D3:28:54:10:9E:7C:CE:66:27:59:79:C0:0E:67:0E:6E

    Signature Algorithm: sha1WithRSAEncryption
        81:1b:52:4f:f2:d1:69:42:61:e1:59:5c:cc:9c:71:93:38:2c:
        b1:82:45:54:03:23:3e:6b:ce:3c:31:9e:01:b9:5c:60:1b:cf:
        7e:2b:ac:98:0f:a3:a9:86:3b:25:78:2e:f7:a0:7d:dd:ae:15:
        23:d3:92:ef:58:11:3a:ee:18:d9:51:20:ed:ef:35:47:ce:bb:
        0b:93:58:28:d7:64:2e:1e:4b:b4:e8:e2:66:63:db:e7:4d:b8:
        77:6f:e2:97:69:4b:97:68:05:6f:ee:7a:ff:c7:9b:d6:a9:14:
        68:1c:e2:6c:8f:c5:2a:9f:e9:8f:9a:ce:03:9d:93:e0:75:c4:
        94:8a:40:92:2c:e2:70:d1:62:74:18:87:6b:6c:43:de:8b:52:
        d9:e6:50:c8:fe:10:82:8b:08:a5:51:ad:9e:c2:9b:47:7b:4d:
        93:54:41:6b:b3:b6:98:92:d6:33:7b:35:c9:9f:5c:2c:6b:05:
        43:7e:bf:6d:1d:b8:af:75:85:7f:7f:55:5d:f7:cb:8e:b6:a7:
        4a:ef:ba:7b:d4:e0:59:18:50:45:a3:79:60:04:da:30:ef:98:
        85:ec:8d:08:74:9a:82:a8:6e:f3:7c:bc:33:e9:2e:89:46:dd:
        1a:23:54:d5:cf:58:d0:ec:8b:01:10:b3:d9:cb:64:04:20:6a:
        db:62:c0:42
-----BEGIN CERTIFICATE-----
MIIDzzCCAregAwIBAgIBAjANBgkqhkiG9w0BAQUFADB0MRMwEQYKCZImiZPyLGQB
GRYDb3JnMRYwFAYKCZImiZPyLGQBGRYGc2ltcGxlMRMwEQYDVQQKDApTaW1wbGUg
SW5jMRcwFQYDVQQLDA5TaW1wbGUgUm9vdCBDQTEXMBUGA1UEAwwOU2ltcGxlIFJv
b3QgQ0EwHhcNMTcxMjEwMTgzNjQzWhcNMjcxMjEwMTgzNjQzWjB6MRMwEQYKCZIm
iZPyLGQBGRYDb3JnMRYwFAYKCZImiZPyLGQBGRYGc2ltcGxlMRMwEQYDVQQKDApT
aW1wbGUgSW5jMRowGAYDVQQLDBFTaW1wbGUgU2lnbmluZyBDQTEaMBgGA1UEAwwR
U2ltcGxlIFNpZ25pbmcgQ0EwggEiMA0GCSqGSIb3DQEBAQUAA4IBDwAwggEKAoIB
AQDSUQXy0luofmTYgFsAfFqX884qg6DzWOFk9HS6wmh0/7qBgLY1lIOOKQ+1yK1E
Zl82RtKTssg/aeNW32NDqLDhsvsNkJ45tDbR6sFKZOGbH+oB56fUszCXF1ILuYyI
0jgt591QiUsyXItzLg8ICpSDR1VCefT8OJmoSDhR8L4C8f0bNcN1ad1kh6CpuhT/
qjLUaNpOsUwTzLFptdNIoFFe7ydExlo5LPey+m5rcWd6Pov4klxcccE9YlEU7h5m
YAJTDXQaS6bPHmHByoiXJxKWwqBm1MyTDjJr8lqKVEPDYIKjMYXXqMeKNSydHuXK
lFg1qnescYlxLCQcFrVQ6UcXAgMBAAGjZjBkMA4GA1UdDwEB/wQEAwIBBjASBgNV
HRMBAf8ECDAGAQH/AgEAMB0GA1UdDgQWBBQQuNIfyisf6TA6TRZXoB2iDCvuMDAf
BgNVHSMEGDAWgBQZWWJR0yhUEJ58zmYnWXnADmcObjANBgkqhkiG9w0BAQUFAAOC
AQEAgRtST/LRaUJh4VlczJxxkzgssYJFVAMjPmvOPDGeAblcYBvPfiusmA+jqYY7
JXgu96B93a4VI9OS71gROu4Y2VEg7e81R867C5NYKNdkLh5LtOjiZmPb5024d2/i
l2lLl2gFb+56/8eb1qkUaBzibI/FKp/pj5rOA52T4HXElIpAkizicNFidBiHa2xD
3otS2eZQyP4QgosIpVGtnsKbR3tNk1RBa7O2mJLWM3s1yZ9cLGsFQ36/bR24r3WF
f39VXffLjranSu+6e9TgWRhQRaN5YATaMO+YheyNCHSagqhu83y8M+kuiUbdGiNU
1c9Y0OyLARCz2ctkBCBq22LAQg==
-----END CERTIFICATE-----
Certificate:
    Data:
        Version: 3 (0x2)
        Serial Number: 1 (0x1)
        Signature Algorithm: sha1WithRSAEncryption
        Issuer: DC=org, DC=simple, O=Simple Inc, OU=Simple Root CA, CN=Simple Root CA
        Validity
            Not Before: Dec 10 18:31:27 2017 GMT
            Not After : Dec 10 18:31:27 2027 GMT
        Subject: DC=org, DC=simple, O=Simple Inc, OU=Simple Root CA, CN=Simple Root CA
        Subject Public Key Info:
            Public Key Algorithm: rsaEncryption
            RSA Public Key: (2048 bit)
                Modulus (2048 bit):
                    00:cd:28:d5:6b:91:c6:e5:ec:31:1b:df:a4:7e:23:
                    e6:e5:f3:0b:f3:ef:4f:45:52:c7:25:84:eb:b5:ce:
                    21:bb:ac:0f:19:0f:11:96:d9:c4:0c:86:6f:90:3c:
                    a0:59:50:6c:21:4f:8f:86:8f:07:d3:24:d0:4d:29:
                    9a:ac:cc:a8:7e:9a:3c:60:39:14:0e:6e:59:8e:a9:
                    6e:45:1f:cc:7e:c2:63:c5:13:a9:f9:6e:51:a3:93:
                    49:44:a9:6d:f1:be:95:14:e4:2a:c3:6c:5e:35:18:
                    ff:45:5a:57:43:16:7d:5f:9f:62:6d:06:45:5f:bc:
                    6a:06:6b:2f:73:57:bf:07:1e:eb:9b:11:25:1d:00:
                    6d:ef:66:9c:ea:03:bd:44:40:0f:dd:f2:60:5a:68:
                    e9:f9:5f:e4:5c:06:c2:18:bd:76:ab:8c:4f:d2:77:
                    ef:99:3a:4b:ac:63:95:3d:6b:c2:58:4b:1a:43:75:
                    d2:6f:bd:a0:5b:90:00:04:dc:d3:a2:ce:3f:61:a3:
                    6b:61:86:bc:74:5c:bf:58:3d:fe:f7:3b:dd:cb:78:
                    45:d4:76:bc:fc:ff:f0:49:50:aa:a1:3d:96:9d:4f:
                    1b:f8:9d:ec:fe:17:fe:6e:04:84:21:22:26:24:24:
                    36:7e:7e:a4:e1:23:37:78:d0:c1:1c:ef:a7:0e:69:
                    d4:59
                Exponent: 65537 (0x10001)
        X509v3 extensions:
            X509v3 Key Usage: critical
                Certificate Sign, CRL Sign
            X509v3 Basic Constraints: critical
                CA:TRUE
            X509v3 Subject Key Identifier: 
                19:59:62:51:D3:28:54:10:9E:7C:CE:66:27:59:79:C0:0E:67:0E:6E
            X509v3 Authority Key Identifier: 
                keyid:19:59:62:51:D3:28:54:10:9E:7C:CE:66:27:59:79:C0:0E:67:0E:6E

    Signature Algorithm: sha1WithRSAEncryption
        b3:6c:4f:d2:82:46:cb:75:5b:d5:0c:f5:48:01:57:59:22:a8:
        7c:7e:ea:f1:21:d2:53:63:64:e5:65:02:ed:d1:1e:d5:8b:96:
        0c:d5:75:11:75:f5:74:85:89:50:75:3f:1a:ae:d4:77:ef:aa:
        97:2a:7f:71:41:f0:18:2a:5e:8f:8f:54:99:2d:88:44:b6:53:
        4c:30:c0:b5:60:cc:02:81:75:82:b6:91:6f:43:19:2b:4a:02:
        82:a6:5f:b8:22:c5:81:82:06:ae:9a:7d:97:7c:96:3b:79:a8:
        41:a7:5a:3b:2c:df:bb:1d:16:e3:e6:3a:46:49:92:ee:d4:77:
        f3:01:c4:00:1a:4d:60:38:cc:bc:8e:9d:02:e8:f6:e7:bb:7e:
        2b:53:3d:c5:a5:6d:09:c6:26:55:b8:c8:7d:86:16:19:b5:d1:
        da:db:60:f2:1e:94:41:fd:bd:08:2a:2b:4f:ab:3f:21:af:d3:
        4e:12:30:94:ed:c5:e6:f4:d6:6b:9c:23:ff:f2:58:b4:17:cc:
        46:c4:ce:38:d7:5b:d5:da:89:f2:8a:f6:11:22:69:36:ac:9c:
        26:d8:7a:d3:e6:f4:26:65:34:ef:b2:f4:8f:27:cc:3e:f7:aa:
        3d:36:cd:d3:73:71:3a:e0:49:41:c6:ff:89:92:45:a3:73:a3:
        7d:c6:39:28
-----BEGIN CERTIFICATE-----
MIIDxjCCAq6gAwIBAgIBATANBgkqhkiG9w0BAQUFADB0MRMwEQYKCZImiZPyLGQB
GRYDb3JnMRYwFAYKCZImiZPyLGQBGRYGc2ltcGxlMRMwEQYDVQQKDApTaW1wbGUg
SW5jMRcwFQYDVQQLDA5TaW1wbGUgUm9vdCBDQTEXMBUGA1UEAwwOU2ltcGxlIFJv
b3QgQ0EwHhcNMTcxMjEwMTgzMTI3WhcNMjcxMjEwMTgzMTI3WjB0MRMwEQYKCZIm
iZPyLGQBGRYDb3JnMRYwFAYKCZImiZPyLGQBGRYGc2ltcGxlMRMwEQYDVQQKDApT
aW1wbGUgSW5jMRcwFQYDVQQLDA5TaW1wbGUgUm9vdCBDQTEXMBUGA1UEAwwOU2lt
cGxlIFJvb3QgQ0EwggEiMA0GCSqGSIb3DQEBAQUAA4IBDwAwggEKAoIBAQDNKNVr
kcbl7DEb36R+I+bl8wvz709FUsclhOu1ziG7rA8ZDxGW2cQMhm+QPKBZUGwhT4+G
jwfTJNBNKZqszKh+mjxgORQOblmOqW5FH8x+wmPFE6n5blGjk0lEqW3xvpUU5CrD
bF41GP9FWldDFn1fn2JtBkVfvGoGay9zV78HHuubESUdAG3vZpzqA71EQA/d8mBa
aOn5X+RcBsIYvXarjE/Sd++ZOkusY5U9a8JYSxpDddJvvaBbkAAE3NOizj9ho2th
hrx0XL9YPf73O93LeEXUdrz8//BJUKqhPZadTxv4nez+F/5uBIQhIiYkJDZ+fqTh
Izd40MEc76cOadRZAgMBAAGjYzBhMA4GA1UdDwEB/wQEAwIBBjAPBgNVHRMBAf8E
BTADAQH/MB0GA1UdDgQWBBQZWWJR0yhUEJ58zmYnWXnADmcObjAfBgNVHSMEGDAW
gBQZWWJR0yhUEJ58zmYnWXnADmcObjANBgkqhkiG9w0BAQUFAAOCAQEAs2xP0oJG
y3Vb1Qz1SAFXWSKofH7q8SHSU2Nk5WUC7dEe1YuWDNV1EXX1dIWJUHU/Gq7Ud++q
lyp/cUHwGCpej49UmS2IRLZTTDDAtWDMAoF1graRb0MZK0oCgqZfuCLFgYIGrpp9
l3yWO3moQadaOyzfux0W4+Y6RkmS7tR38wHEABpNYDjMvI6dAuj257t+K1M9xaVt
CcYmVbjIfYYWGbXR2ttg8h6UQf29CCorT6s/Ia/TThIwlO3F5vTWa5wj//JYtBfM
RsTOONdb1dqJ8or2ESJpNqycJth60+b0JmU077L0jyfMPveqPTbN03NxOuBJQcb/
iZJFo3OjfcY5KA==
-----END CERTIFICATE-----
