Certificate:
    Data:
        Version: 3 (0x2)
        Serial Number: 2 (0x2)
        Signature Algorithm: sha1WithRSAEncryption
        Issuer: DC=org, DC=simple, O=Simple Inc, OU=Simple Root CA, CN=Simple Root CA
        Validity
            Not Before: Dec 10 18:36:43 2017 GMT
            Not After : Dec 10 18:36:43 2027 GMT
        Subject: DC=org, DC=simple, O=Simple Inc, OU=Simple Signing CA, CN=Simple Signing CA
        Subject Public Key Info:
            Public Key Algorithm: rsaEncryption
            RSA Public Key: (2048 bit)
                Modulus (2048 bit):
                    00:d2:51:05:f2:d2:5b:a8:7e:64:d8:80:5b:00:7c:
                    5a:97:f3:ce:2a:83:a0:f3:58:e1:64:f4:74:ba:c2:
                    68:74:ff:ba:81:80:b6:35:94:83:8e:29:0f:b5:c8:
                    ad:44:66:5f:36:46:d2:93:b2:c8:3f:69:e3:56:df:
                    63:43:a8:b0:e1:b2:fb:0d:90:9e:39:b4:36:d1:ea:
                    c1:4a:64:e1:9b:1f:ea:01:e7:a7:d4:b3:30:97:17:
                    52:0b:b9:8c:88:d2:38:2d:e7:dd:50:89:4b:32:5c:
                    8b:73:2e:0f:08:0a:94:83:47:55:42:79:f4:fc:38:
                    99:a8:48:38:51:f0:be:02:f1:fd:1b:35:c3:75:69:
                    dd:64:87:a0:a9:ba:14:ff:aa:32:d4:68:da:4e:b1:
                    4c:13:cc:b1:69:b5:d3:48:a0:51:5e:ef:27:44:c6:
                    5a:39:2c:f7:b2:fa:6e:6b:71:67:7a:3e:8b:f8:92:
                    5c:5c:71:c1:3d:62:51:14:ee:1e:66:60:02:53:0d:
                    74:1a:4b:a6:cf:1e:61:c1:ca:88:97:27:12:96:c2:
                    a0:66:d4:cc:93:0e:32:6b:f2:5a:8a:54:43:c3:60:
                    82:a3:31:85:d7:a8:c7:8a:35:2c:9d:1e:e5:ca:94:
                    58:35:aa:77:ac:71:89:71:2c:24:1c:16:b5:50:e9:
                    47:17
                Exponent: 65537 (0x10001)
        X509v3 extensions:
            X509v3 Key Usage: critical
                Certificate Sign, CRL Sign
            X509v3 Basic Constraints: critical
                CA:TRUE, pathlen:0
            X509v3 Subject Key Identifier: 
                10:B8:D2:1F:CA:2B:1F:E9:30:3A:4D:16:57:A0:1D:A2:0C:2B:EE:30
            X509v3 Authority Key Identifier: 
                keyid:19:59:62:51:D3:28:54:10:9E:7C:CE:66:27:59:79:C0:0E:67:0E:6E

    Signature Algorithm: sha1WithRSAEncryption
        81:1b:52:4f:f2:d1:69:42:61:e1:59:5c:cc:9c:71:93:38:2c:
        b1:82:45:54:03:23:3e:6b:ce:3c:31:9e:01:b9:5c:60:1b:cf:
        7e:2b:ac:98:0f:a3:a9:86:3b:25:78:2e:f7:a0:7d:dd:ae:15:
        23:d3:92:ef:58:11:3a:ee:18:d9:51:20:ed:ef:35:47:ce:bb:
        0b:93:58:28:d7:64:2e:1e:4b:b4:e8:e2:66:63:db:e7:4d:b8:
        77:6f:e2:97:69:4b:97:68:05:6f:ee:7a:ff:c7:9b:d6:a9:14:
        68:1c:e2:6c:8f:c5:2a:9f:e9:8f:9a:ce:03:9d:93:e0:75:c4:
        94:8a:40:92:2c:e2:70:d1:62:74:18:87:6b:6c:43:de:8b:52:
        d9:e6:50:c8:fe:10:82:8b:08:a5:51:ad:9e:c2:9b:47:7b:4d:
        93:54:41:6b:b3:b6:98:92:d6:33:7b:35:c9:9f:5c:2c:6b:05:
        43:7e:bf:6d:1d:b8:af:75:85:7f:7f:55:5d:f7:cb:8e:b6:a7:
        4a:ef:ba:7b:d4:e0:59:18:50:45:a3:79:60:04:da:30:ef:98:
        85:ec:8d:08:74:9a:82:a8:6e:f3:7c:bc:33:e9:2e:89:46:dd:
        1a:23:54:d5:cf:58:d0:ec:8b:01:10:b3:d9:cb:64:04:20:6a:
        db:62:c0:42
-----BEGIN CERTIFICATE-----
MIIDzzCCAregAwIBAgIBAjANBgkqhkiG9w0BAQUFADB0MRMwEQYKCZImiZPyLGQB
GRYDb3JnMRYwFAYKCZImiZPyLGQBGRYGc2ltcGxlMRMwEQYDVQQKDApTaW1wbGUg
SW5jMRcwFQYDVQQLDA5TaW1wbGUgUm9vdCBDQTEXMBUGA1UEAwwOU2ltcGxlIFJv
b3QgQ0EwHhcNMTcxMjEwMTgzNjQzWhcNMjcxMjEwMTgzNjQzWjB6MRMwEQYKCZIm
iZPyLGQBGRYDb3JnMRYwFAYKCZImiZPyLGQBGRYGc2ltcGxlMRMwEQYDVQQKDApT
aW1wbGUgSW5jMRowGAYDVQQLDBFTaW1wbGUgU2lnbmluZyBDQTEaMBgGA1UEAwwR
U2ltcGxlIFNpZ25pbmcgQ0EwggEiMA0GCSqGSIb3DQEBAQUAA4IBDwAwggEKAoIB
AQDSUQXy0luofmTYgFsAfFqX884qg6DzWOFk9HS6wmh0/7qBgLY1lIOOKQ+1yK1E
Zl82RtKTssg/aeNW32NDqLDhsvsNkJ45tDbR6sFKZOGbH+oB56fUszCXF1ILuYyI
0jgt591QiUsyXItzLg8ICpSDR1VCefT8OJmoSDhR8L4C8f0bNcN1ad1kh6CpuhT/
qjLUaNpOsUwTzLFptdNIoFFe7ydExlo5LPey+m5rcWd6Pov4klxcccE9YlEU7h5m
YAJTDXQaS6bPHmHByoiXJxKWwqBm1MyTDjJr8lqKVEPDYIKjMYXXqMeKNSydHuXK
lFg1qnescYlxLCQcFrVQ6UcXAgMBAAGjZjBkMA4GA1UdDwEB/wQEAwIBBjASBgNV
HRMBAf8ECDAGAQH/AgEAMB0GA1UdDgQWBBQQuNIfyisf6TA6TRZXoB2iDCvuMDAf
BgNVHSMEGDAWgBQZWWJR0yhUEJ58zmYnWXnADmcObjANBgkqhkiG9w0BAQUFAAOC
AQEAgRtST/LRaUJh4VlczJxxkzgssYJFVAMjPmvOPDGeAblcYBvPfiusmA+jqYY7
JXgu96B93a4VI9OS71gROu4Y2VEg7e81R867C5NYKNdkLh5LtOjiZmPb5024d2/i
l2lLl2gFb+56/8eb1qkUaBzibI/FKp/pj5rOA52T4HXElIpAkizicNFidBiHa2xD
3otS2eZQyP4QgosIpVGtnsKbR3tNk1RBa7O2mJLWM3s1yZ9cLGsFQ36/bR24r3WF
f39VXffLjranSu+6e9TgWRhQRaN5YATaMO+YheyNCHSagqhu83y8M+kuiUbdGiNU
1c9Y0OyLARCz2ctkBCBq22LAQg==
-----END CERTIFICATE-----
