-----BEGIN RSA PRIVATE KEY-----
Proc-Type: 4,ENCRYPTED
DEK-Info: DES-EDE3-CBC,D11CD8368EE41445

3YW2LKv4oUuTHtTq66LJy9kV16S2DjqX8Vd7UTBhbwaoGk4iSYGkfdafBtLZGaIG
XK+GGnf+pTIrx9XdD7F08i0fKbRGR6flkZGYkr11OacuIoSckGW8ZLNhCCWrOnJB
jqk8pJDQI6p9E6mSf2/fPUiezdrCtIjKIdHfO69Nrhk8OyyY5OqZkt6eaGZ3OUOc
5b4uCXVIYB5iewbQfstxlQrzToagm2pwj4b1B6NZ99Wu6nRMfdPOuayL85GPgohD
BQqY4zPCFFSMxxkYgLduz/AXQKQNOfQs8+N7p/WSYK8VIg2WcqZUbjqw9YEGvlof
seEmhumkJGyntIMefB0AguIB4WdgNNAwGVeZV+fbwaeyu0LbI2/uW/g2BHaEyb8S
THoqQ4Z0V8C04KhNupotaY3fm5xeGBetwsHFELIrDPtEHLd519gEVSQziUGrNM3P
ojhC/V0Q4QbAiXMiQssFAyhbZMh1VkRpxWJu7UVPoXHevO7MdZnaw3r4jcwUKMaR
ekC4tBBXSV1WB+8xb0z22PPIuZai5dPsBr6DUe3kGMld+0NAFUbLJaOVsoiHNeR/
5+DnLh2Rc4XSRsUkYaPgCTB5qupJy4tWMYt6c/EmkwQZ6ZUwuAVVf2xngGApvya9
by3z6gpy5lAbAKy/NAbJnPO/x71qapTyKBYC09V+TlMInahsl2sLlqE935YqFFFZ
9GSEI0pwczSNebmnHbGrjxUYUA8lFp7p3fN5u1Dk6u52pwaioxUSzAi2U/SrmD9S
AUfrbr+DXRiy2GKheeWPl3YfLIkJlX8Bxm5vlDMuu0WfZkC0p8RwqqEnQmMRlT53
urSbz22Kz6kh+0ckxpHAwKAkSE5OitM/74UeHJgR10Wat1oJWAkooEm27QflhCmK
Hv2quxoFa/qzoJWJZP/TGOqwKuWv5eWe9MqTmw9vm3ZZU8mU1baEPtTOOgg7lhQw
gdOvMJLPiVVlNLawpkUZPFzoggji/3SkwndwODvHKR9/ktDRPYB+6Dzawc7moNHJ
I+aOXEyThJtEivA/WPkyFCJouacRul1oVv6QR+CS5pGAIPeDMnTIbqePNsoH+okc
hWV9sJqKW7/K3zOf6OQ2imE2Sl8PvKPv7L7t3aoYHYcIvse3bAwt0vJUQe47MH+P
5bW2BIdBfKOUtUhwagWyK8LaKhdyvUZd67lzPER3EOYH8pBdKEUSfMrdQDNMD6R/
hPaGT2FO/qvls9QBPbhQn1rgR782LPjOmwfc95AvEggqhGIPXa97+y17IYFAKxnG
yolehfu36FucoA4UAqdX4rPO4dHUsv6Nbr4FPu57EYebam1zcHQOnmmnpIrEb4Fs
ns1TS7oS9F2dIDbG/9x0M2/anhZcQP9fvHzNpSa6rTmx887ZWzuCXrc0wTHKlIDz
x5IpWZ1fESEzDQwVbsocf6BbLD6k9DucwKzeHZ9Umalj95y8ToTrfMphahOId62K
3p+kFGfum35UIaBVt/lalC3CtiVCYQRMUuvXiIxSa1iWLgKhMmwtvNsQi9e7rjCl
hbVmij0c7PE4MhXkx3O8SGzzx3PtCw5T0YLSFSzP/xlVMqTE4wr9SK1+l22YwRQg
-----END RSA PRIVATE KEY-----
Certificate:
    Data:
        Version: 3 (0x2)
        Serial Number: 1 (0x1)
        Signature Algorithm: sha1WithRSAEncryption
        Issuer: DC=org, DC=simple, O=Simple Inc, OU=Simple Signing CA, CN=Simple Signing CA
        Validity
            Not Before: Dec 10 19:15:22 2017 GMT
            Not After : Dec 10 19:15:22 2019 GMT
        Subject: DC=org, DC=simple, O=Simple Inc, CN=Fred Flintstone
        Subject Public Key Info:
            Public Key Algorithm: rsaEncryption
            RSA Public Key: (2048 bit)
                Modulus (2048 bit):
                    00:9e:17:81:bc:55:a1:7f:17:5f:0e:0c:ae:4c:d0:
                    3f:a8:e6:51:cd:83:a0:03:14:bf:30:6e:05:35:38:
                    db:55:84:53:61:7b:ca:e9:8d:92:5a:bc:8e:65:f8:
                    42:dc:f1:88:ce:19:85:33:f7:1e:39:7d:61:fe:3c:
                    b2:4b:9c:b5:c0:f4:0a:65:ef:66:42:b8:53:46:42:
                    04:ae:2a:e8:f2:b1:59:da:4e:3a:1c:1e:0b:70:74:
                    e0:b7:c7:a7:d4:f9:93:3d:14:99:ad:38:6c:43:45:
                    e8:7f:28:d5:04:19:9e:2f:2c:30:51:d8:24:b2:94:
                    59:fc:01:24:e8:21:f2:37:34:1c:cd:aa:1a:52:f3:
                    ab:1c:31:a5:51:6c:6b:e8:d5:d1:d9:71:87:d9:4a:
                    49:82:35:ef:96:ea:7d:ee:b3:7d:ae:05:70:48:14:
                    ce:8d:a8:7c:54:ef:21:ca:3e:59:31:ae:fe:4c:bf:
                    2d:18:5a:a2:d7:2c:ff:68:07:b9:26:c5:45:50:89:
                    9e:99:b2:3c:63:10:a8:20:b7:2b:7b:5a:e8:85:a4:
                    64:59:25:75:28:9e:0b:83:a6:89:67:9b:cb:eb:da:
                    a6:26:db:9c:39:50:0f:c6:69:85:95:2f:5a:b5:74:
                    06:08:5c:97:d9:00:70:d0:1e:b3:e8:cf:60:69:1c:
                    49:8b
                Exponent: 65537 (0x10001)
        X509v3 extensions:
            X509v3 Key Usage: critical
                Digital Signature, Key Encipherment
            X509v3 Basic Constraints: 
                CA:FALSE
            X509v3 Extended Key Usage: 
                E-mail Protection, TLS Web Client Authentication
            X509v3 Subject Key Identifier: 
                01:CD:6D:96:CD:A7:3C:35:F3:B4:8E:C0:C2:6F:97:51:19:D2:82:A2
            X509v3 Authority Key Identifier: 
                keyid:10:B8:D2:1F:CA:2B:1F:E9:30:3A:4D:16:57:A0:1D:A2:0C:2B:EE:30

            X509v3 Subject Alternative Name: 
                email:fred@simple.org
    Signature Algorithm: sha1WithRSAEncryption
        04:e6:a5:aa:0a:8e:3d:1b:90:78:60:9c:6d:d2:38:96:81:9a:
        db:ab:d1:b3:79:cf:98:01:dc:bf:d4:41:d5:97:fe:df:9b:bf:
        61:74:d4:08:30:7f:d8:1b:48:23:e6:e1:d8:66:19:db:58:48:
        44:c3:1d:c5:0b:27:e7:1a:49:da:a1:fa:97:bf:41:3c:56:85:
        7f:99:21:e5:3e:3e:16:cc:21:10:44:91:9f:28:19:25:26:c1:
        95:80:e1:3a:72:bd:b7:3e:27:12:38:b9:f2:d0:d5:9a:1a:02:
        ca:81:22:98:15:1e:56:b9:37:b0:5a:6f:7f:df:16:c1:88:22:
        05:24:38:e6:e7:0b:0c:21:5e:7e:46:97:fb:2d:bc:8a:d4:9a:
        73:15:93:de:7d:12:bb:ac:14:0e:d9:9e:7c:de:ed:94:a0:65:
        53:b7:fb:da:cd:23:28:7f:ce:fa:27:40:25:5f:73:c6:fe:4a:
        ec:3e:70:b8:0f:86:bb:c4:9d:0a:22:83:98:4d:13:7c:ba:38:
        3c:8d:24:70:f0:41:5d:fe:95:cd:20:85:c3:15:ca:1e:96:6b:
        87:91:8e:73:3a:84:b1:b0:08:df:59:8b:ed:92:5f:72:fa:9a:
        08:25:02:32:f7:77:e9:f4:62:a0:88:b7:40:0a:44:49:30:10:
        21:cd:28:95
-----BEGIN CERTIFICATE-----
MIID6zCCAtOgAwIBAgIBATANBgkqhkiG9w0BAQUFADB6MRMwEQYKCZImiZPyLGQB
GRYDb3JnMRYwFAYKCZImiZPyLGQBGRYGc2ltcGxlMRMwEQYDVQQKDApTaW1wbGUg
SW5jMRowGAYDVQQLDBFTaW1wbGUgU2lnbmluZyBDQTEaMBgGA1UEAwwRU2ltcGxl
IFNpZ25pbmcgQ0EwHhcNMTcxMjEwMTkxNTIyWhcNMTkxMjEwMTkxNTIyWjBcMRMw
EQYKCZImiZPyLGQBGRYDb3JnMRYwFAYKCZImiZPyLGQBGRYGc2ltcGxlMRMwEQYD
VQQKDApTaW1wbGUgSW5jMRgwFgYDVQQDDA9GcmVkIEZsaW50c3RvbmUwggEiMA0G
CSqGSIb3DQEBAQUAA4IBDwAwggEKAoIBAQCeF4G8VaF/F18ODK5M0D+o5lHNg6AD
FL8wbgU1ONtVhFNhe8rpjZJavI5l+ELc8YjOGYUz9x45fWH+PLJLnLXA9Apl72ZC
uFNGQgSuKujysVnaTjocHgtwdOC3x6fU+ZM9FJmtOGxDReh/KNUEGZ4vLDBR2CSy
lFn8ASToIfI3NBzNqhpS86scMaVRbGvo1dHZcYfZSkmCNe+W6n3us32uBXBIFM6N
qHxU7yHKPlkxrv5Mvy0YWqLXLP9oB7kmxUVQiZ6ZsjxjEKggtyt7WuiFpGRZJXUo
nguDpolnm8vr2qYm25w5UA/GaYWVL1q1dAYIXJfZAHDQHrPoz2BpHEmLAgMBAAGj
gZkwgZYwDgYDVR0PAQH/BAQDAgWgMAkGA1UdEwQCMAAwHQYDVR0lBBYwFAYIKwYB
BQUHAwQGCCsGAQUFBwMCMB0GA1UdDgQWBBQBzW2Wzac8NfO0jsDCb5dRGdKCojAf
BgNVHSMEGDAWgBQQuNIfyisf6TA6TRZXoB2iDCvuMDAaBgNVHREEEzARgQ9mcmVk
QHNpbXBsZS5vcmcwDQYJKoZIhvcNAQEFBQADggEBAATmpaoKjj0bkHhgnG3SOJaB
mtur0bN5z5gB3L/UQdWX/t+bv2F01Agwf9gbSCPm4dhmGdtYSETDHcULJ+caSdqh
+pe/QTxWhX+ZIeU+PhbMIRBEkZ8oGSUmwZWA4Tpyvbc+JxI4ufLQ1ZoaAsqBIpgV
Hla5N7Bab3/fFsGIIgUkOObnCwwhXn5Gl/stvIrUmnMVk959ErusFA7Znnze7ZSg
ZVO3+9rNIyh/zvonQCVfc8b+Suw+cLgPhrvEnQoig5hNE3y6ODyNJHDwQV3+lc0g
hcMVyh6Wa4eRjnM6hLGwCN9Zi+2SX3L6mgglAjL3d+n0YqCIt0AKREkwECHNKJU=
-----END CERTIFICATE-----
